target datalayout = "e-m:e-p270:32:32-p271:32:32-p272:64:64-i64:64-i128:128-f80:128-n8:16:32:64-S128"
target triple = "x86_64-pc-linux-gnu"

@plugin_type = dso_local constant [28 x i8] c"accounting_storage/slurmdbd\00", align 16
@.str.89 = private unnamed_addr constant [18 x i8] c"%s: %s: called %s\00", align 1
@__func__.acct_storage_p_send_all = private unnamed_addr constant [24 x i8] c"acct_storage_p_send_all\00", align 1
@.str.90 = private unnamed_addr constant [37 x i8] c"%s: unknown message type of %s given\00", align 1

; Function Attrs: nounwind uwtable
define dso_local void @acct_storage_p_send_all(ptr noundef %0, i64 noundef %1, i32 noundef %2) #0 {
  %4 = alloca ptr, align 8
  %5 = alloca i64, align 8
  %6 = alloca i32, align 4
  store ptr %0, ptr %4, align 8
  store i64 %1, ptr %5, align 8
  store i32 %2, ptr %6, align 4
  br label %7

7:                                                ; preds = %3
  br label %8

8:                                                ; preds = %7
  %9 = call i32 @slurm_get_log_level()
  %10 = icmp sge i32 %9, 6
  br i1 %10, label %11, label %15

11:                                               ; preds = %8
  %12 = load i32, ptr %6, align 4
  %13 = trunc i32 %12 to i16
  %14 = call ptr @rpc_num2string(i16 noundef zeroext %13)
  call void (i32, ptr, ...) @slurm_log_var(i32 noundef 6, ptr noundef @.str.89, ptr noundef @plugin_type, ptr noundef @__func__.acct_storage_p_send_all, ptr noundef %14)
  br label %15

15:                                               ; preds = %11, %8
  br label %16

16:                                               ; preds = %15
  br label %17

17:                                               ; preds = %16
  %18 = load i32, ptr %6, align 4
  switch i32 %18, label %27 [
    i32 10002, label %19
    i32 10005, label %21
    i32 10004, label %24
  ]

19:                                               ; preds = %17
  %20 = call i32 @send_jobs_to_accounting()
  br label %21

21:                                               ; preds = %17, %19
  %22 = load i32, ptr %6, align 4
  %23 = call i32 @send_resvs_to_accounting(i32 noundef %22)
  br label %24

24:                                               ; preds = %17, %21
  %25 = load i64, ptr %5, align 8
  %26 = call i32 @send_nodes_to_accounting(i64 noundef %25)
  br label %32

27:                                               ; preds = %17
  %28 = load i32, ptr %6, align 4
  %29 = trunc i32 %28 to i16
  %30 = call ptr @rpc_num2string(i16 noundef zeroext %29)
  %31 = call i32 (ptr, ...) @slurm_error(ptr noundef @.str.90, ptr noundef @__func__.acct_storage_p_send_all, ptr noundef %30)
  br label %32

32:                                               ; preds = %27, %24
  ret void
}