; Function Attrs: nounwind uwtable
define dso_local void @acct_storage_p_send_all(ptr readnone captures(none) %0, i64 noundef %1, i32 noundef %2) local_unnamed_addr #0 {
  %4 = tail call i32 @slurm_get_log_level() #11
  %5 = icmp sgt i32 %4, 5
  br i1 %5, label %6, label %9

6:                                                ; preds = %3
  %7 = trunc i32 %2 to i16
  %8 = tail call ptr @rpc_num2string(i16 noundef zeroext %7) #11
  tail call void (i32, ptr, ...) @slurm_log_var(i32 noundef 6, ptr noundef nonnull @.str.89, ptr noundef nonnull @plugin_type, ptr noundef nonnull @__func__.acct_storage_p_send_all, ptr noundef %8) #11
  br label %9

9:                                                ; preds = %6, %3
  switch i32 %2, label %16 [
    i32 10002, label %10
    i32 10005, label %12
    i32 10004, label %14
  ]

10:                                               ; preds = %9
  %11 = tail call i32 @send_jobs_to_accounting() #11
  br label %12

12:                                               ; preds = %10, %9
  %13 = tail call i32 @send_resvs_to_accounting(i32 noundef %2) #11
  br label %14

14:                                               ; preds = %12, %9
  %15 = tail call i32 @send_nodes_to_accounting(i64 noundef %1) #11
  br label %20

16:                                               ; preds = %9
  %17 = trunc i32 %2 to i16
  %18 = tail call ptr @rpc_num2string(i16 noundef zeroext %17) #11
  %19 = tail call i32 (ptr, ...) @slurm_error(ptr noundef nonnull @.str.90, ptr noundef nonnull @__func__.acct_storage_p_send_all, ptr noundef %18) #11
  br label %20

20:                                               ; preds = %16, %14
  ret void
}